; Function Attrs: mustprogress nounwind uwtable
define hidden void @_ZN13TemplateTable6fstoreEi(i32 noundef %0) local_unnamed_addr #0 align 2 {
  %2 = alloca %class.Address, align 16
  tail call void @_ZN13TemplateTable10transitionE8TosStateS0_(i32 noundef 6, i32 noundef 9) #8
  %3 = load ptr, ptr @_ZN13TemplateTable5_masmE, align 8
  %4 = load i8, ptr @PrintInterpreter, align 1
  %5 = trunc i8 %4 to i1
  br i1 %5, label %6, label %_ZN12Disassembler4hookI25InterpreterMacroAssemblerEEPT_PKciS3_.exit

6:                                                ; preds = %1
  tail call void @_ZN12Disassembler5_hookEPKciP14MacroAssembler(ptr noundef nonnull @.str, i32 noundef 1233, ptr noundef %3) #8
  br label %_ZN12Disassembler4hookI25InterpreterMacroAssemblerEEPT_PKciS3_.exit

_ZN12Disassembler4hookI25InterpreterMacroAssemblerEEPT_PKciS3_.exit: ; preds = %1, %6
  %.neg.i.i.i = mul i32 %0, -8
  store <4 x i32> <i32 14, i32 -1, i32 -1, i32 -1>, ptr %2, align 16, !alias.scope !231
  %7 = getelementptr inbounds i8, ptr %2, i64 16
  store i32 %.neg.i.i.i, ptr %7, align 16, !alias.scope !231
  %8 = getelementptr inbounds i8, ptr %2, i64 20
  store i8 0, ptr %8, align 4, !alias.scope !231
  %9 = getelementptr inbounds i8, ptr %2, i64 24
  store ptr getelementptr inbounds inrange(-16, 72) (i8, ptr @_ZTV10Relocation, i64 16), ptr %9, align 8, !alias.scope !231
  %10 = getelementptr inbounds i8, ptr %2, i64 32
  store ptr null, ptr %10, align 16, !alias.scope !231
  %11 = getelementptr inbounds i8, ptr %2, i64 40
  store i32 0, ptr %11, align 8, !alias.scope !231
  call void @_ZN14MacroAssembler11store_floatE7Address(ptr noundef nonnull align 8 dereferenceable(40) %3, ptr noundef nonnull %2) #8
  ret void
}